; Function Attrs: cold nounwind optsize uwtable
define internal range(i32 -12, 1) i32 @rpza_encode_init(ptr noundef readonly captures(none) %0) #0 {
  %2 = getelementptr inbounds nuw i8, ptr %0, i64 32
  %3 = load ptr, ptr %2, align 8, !tbaa !4
  %4 = getelementptr inbounds nuw i8, ptr %0, i64 112
  %5 = load i32, ptr %4, align 8, !tbaa !27
  %6 = getelementptr inbounds nuw i8, ptr %3, i64 64
  store i32 %5, ptr %6, align 8, !tbaa !28
  %7 = getelementptr inbounds nuw i8, ptr %0, i64 116
  %8 = load i32, ptr %7, align 4, !tbaa !32
  %9 = getelementptr inbounds nuw i8, ptr %3, i64 68
  store i32 %8, ptr %9, align 4, !tbaa !33
  %10 = tail call ptr @av_frame_alloc() #7
  %11 = getelementptr inbounds nuw i8, ptr %3, i64 24
  store ptr %10, ptr %11, align 8, !tbaa !34
  %.not = icmp eq ptr %10, null
  %. = select i1 %.not, i32 -12, i32 0
  ret i32 %.
}